target datalayout = "e-m:e-p270:32:32-p271:32:32-p272:64:64-i64:64-i128:128-f80:128-n8:16:32:64-S128"
target triple = "x86_64-pc-linux-gnu"

%struct.Int128_ = type { i64, i64 }

; Function Attrs: nounwind uwtable
define dso_local i32 @int128_scomp64(i64 %0, i64 %1, i64 noundef %2) #0 {
  %4 = alloca i32, align 4
  %5 = alloca %struct.Int128_, align 8
  %6 = alloca i64, align 8
  %7 = alloca i8, align 1
  %8 = alloca i8, align 1
  %9 = getelementptr inbounds { i64, i64 }, ptr %5, i32 0, i32 0
  store i64 %0, ptr %9, align 8
  %10 = getelementptr inbounds { i64, i64 }, ptr %5, i32 0, i32 1
  store i64 %1, ptr %10, align 8
  store i64 %2, ptr %6, align 8
  %11 = load i64, ptr %6, align 8
  %12 = icmp ne i64 %11, 0
  br i1 %12, label %22, label %13

13:                                               ; preds = %3
  %14 = getelementptr inbounds %struct.Int128_, ptr %5, i32 0, i32 0
  %15 = load i64, ptr %14, align 8
  %16 = icmp ne i64 %15, 0
  br i1 %16, label %22, label %17

17:                                               ; preds = %13
  %18 = getelementptr inbounds %struct.Int128_, ptr %5, i32 0, i32 1
  %19 = load i64, ptr %18, align 8
  %20 = icmp ne i64 %19, 0
  br i1 %20, label %22, label %21

21:                                               ; preds = %17
  store i32 0, ptr %4, align 4
  br label %80

22:                                               ; preds = %17, %13, %3
  %23 = getelementptr inbounds %struct.Int128_, ptr %5, i32 0, i32 0
  %24 = load i64, ptr %23, align 8
  %25 = lshr i64 %24, 63
  %26 = icmp ne i64 %25, 0
  %27 = zext i1 %26 to i8
  store i8 %27, ptr %7, align 1
  %28 = load i64, ptr %6, align 8
  %29 = lshr i64 %28, 63
  %30 = icmp ne i64 %29, 0
  %31 = zext i1 %30 to i8
  store i8 %31, ptr %8, align 1
  %32 = load i8, ptr %7, align 1
  %33 = trunc i8 %32 to i1
  %34 = zext i1 %33 to i32
  %35 = load i8, ptr %8, align 1
  %36 = trunc i8 %35 to i1
  %37 = zext i1 %36 to i32
  %38 = icmp ne i32 %34, %37
  br i1 %38, label %39, label %43

39:                                               ; preds = %22
  %40 = load i8, ptr %7, align 1
  %41 = trunc i8 %40 to i1
  %42 = select i1 %41, i32 -1, i32 1
  store i32 %42, ptr %4, align 4
  br label %80

43:                                               ; preds = %22
  %44 = load i8, ptr %7, align 1
  %45 = trunc i8 %44 to i1
  br i1 %45, label %46, label %63

46:                                               ; preds = %43
  %47 = getelementptr inbounds %struct.Int128_, ptr %5, i32 0, i32 0
  %48 = load i64, ptr %47, align 8
  %49 = icmp ne i64 %48, -1
  br i1 %49, label %50, label %51

50:                                               ; preds = %46
  store i32 -1, ptr %4, align 4
  br label %80

51:                                               ; preds = %46
  %52 = getelementptr inbounds %struct.Int128_, ptr %5, i32 0, i32 1
  %53 = load i64, ptr %52, align 8
  %54 = load i64, ptr %6, align 8
  %55 = icmp eq i64 %53, %54
  br i1 %55, label %56, label %57

56:                                               ; preds = %51
  store i32 0, ptr %4, align 4
  br label %80

57:                                               ; preds = %51
  %58 = getelementptr inbounds %struct.Int128_, ptr %5, i32 0, i32 1
  %59 = load i64, ptr %58, align 8
  %60 = load i64, ptr %6, align 8
  %61 = icmp sgt i64 %59, %60
  %62 = select i1 %61, i32 1, i32 -1
  store i32 %62, ptr %4, align 4
  br label %80

63:                                               ; preds = %43
  %64 = getelementptr inbounds %struct.Int128_, ptr %5, i32 0, i32 0
  %65 = load i64, ptr %64, align 8
  %66 = icmp ne i64 %65, 0
  br i1 %66, label %67, label %68

67:                                               ; preds = %63
  store i32 1, ptr %4, align 4
  br label %80

68:                                               ; preds = %63
  %69 = getelementptr inbounds %struct.Int128_, ptr %5, i32 0, i32 1
  %70 = load i64, ptr %69, align 8
  %71 = load i64, ptr %6, align 8
  %72 = icmp eq i64 %70, %71
  br i1 %72, label %73, label %74

73:                                               ; preds = %68
  store i32 0, ptr %4, align 4
  br label %80

74:                                               ; preds = %68
  %75 = getelementptr inbounds %struct.Int128_, ptr %5, i32 0, i32 1
  %76 = load i64, ptr %75, align 8
  %77 = load i64, ptr %6, align 8
  %78 = icmp ugt i64 %76, %77
  %79 = select i1 %78, i32 1, i32 -1
  store i32 %79, ptr %4, align 4
  br label %80

80:                                               ; preds = %74, %73, %67, %57, %56, %50, %39, %21
  %81 = load i32, ptr %4, align 4
  ret i32 %81
}