; Function Attrs: mustprogress nofree norecurse nosync nounwind willreturn memory(none) uwtable
define dso_local range(i32 -1, 2) i32 @int128_scomp64(i64 %0, i64 %1, i64 noundef %2) local_unnamed_addr #1 {
  %4 = icmp ne i64 %2, 0
  %5 = icmp ne i64 %0, 0
  %or.cond = select i1 %4, i1 true, i1 %5
  %6 = icmp ne i64 %1, 0
  %or.cond5 = select i1 %or.cond, i1 true, i1 %6
  br i1 %or.cond5, label %7, label %24

7:                                                ; preds = %3
  %8 = icmp slt i64 %0, 0
  %.not.unshifted = xor i64 %2, %0
  %.not = icmp sgt i64 %.not.unshifted, -1
  br i1 %.not, label %11, label %9

9:                                                ; preds = %7
  %10 = select i1 %8, i32 -1, i32 1
  br label %24

11:                                               ; preds = %7
  br i1 %8, label %12, label %18

12:                                               ; preds = %11
  %.not27 = icmp eq i64 %0, -1
  br i1 %.not27, label %13, label %24

13:                                               ; preds = %12
  %14 = icmp eq i64 %1, %2
  br i1 %14, label %24, label %15

15:                                               ; preds = %13
  %16 = icmp sgt i64 %1, %2
  %17 = select i1 %16, i32 1, i32 -1
  br label %24

18:                                               ; preds = %11
  br i1 %5, label %24, label %19

19:                                               ; preds = %18
  %20 = icmp eq i64 %1, %2
  br i1 %20, label %24, label %21

21:                                               ; preds = %19
  %22 = icmp ugt i64 %1, %2
  %23 = select i1 %22, i32 1, i32 -1
  br label %24

24:                                               ; preds = %19, %18, %13, %12, %3, %21, %15, %9
  %.0 = phi i32 [ %10, %9 ], [ %17, %15 ], [ %23, %21 ], [ 0, %3 ], [ -1, %12 ], [ 0, %13 ], [ 1, %18 ], [ 0, %19 ]
  ret i32 %.0
}